; Function Attrs: mustprogress nofree norecurse nosync nounwind willreturn memory(read, inaccessiblemem: none) uwtable
define noundef zeroext i1 @_ZNK7Imf_3_217ScanLineInputFile10isCompleteEv(ptr nocapture noundef nonnull readonly align 8 dereferenceable(24) %this) local_unnamed_addr #10 align 2 {
entry:
  %_data = getelementptr inbounds i8, ptr %this, i64 8
  %0 = load ptr, ptr %_data, align 8
  %fileIsComplete = getelementptr inbounds i8, ptr %0, i64 200
  %1 = load i8, ptr %fileIsComplete, align 8
  %2 = and i8 %1, 1
  %tobool = icmp ne i8 %2, 0
  ret i1 %tobool
}